#include <math.h>
#include <stdio.h>
#include <stdlib.h>
#include <string.h>

void main()
{
	int n;
	char s[30],i,l,j;
	scanf("%d",&n);
	for(j=0;j<n;j++)
	{
		scanf("%s",s);
		l=strlen(s);
		if(s[l-1]=='y')
		{
			for(i=0;i<l-2;i++)
				printf("%c",s[i]);
			printf("\n");
		}
		if(s[l-1]=='g')
		{
			for(i=0;i<l-3;i++)
				printf("%c",s[i]);
			printf("\n");
		}
		if(s[l-1]=='r')
		{
			for(i=0;i<l-2;i++)
				printf("%c",s[i]);
			printf("\n");
		}


	}
}

			
